Certificate:
    Data:
        Version: 3 (0x2)
        Serial Number:
            9b:4a:a5:ff:f3:55:1a:b2
        Signature Algorithm: sha1WithRSAEncryption
        Issuer: C=CN, ST=CN, O=CITICS, OU=CATS, CN=LZ
        Validity
            Not Before: Sep  6 03:28:25 2012 GMT
            Not After : Sep  4 03:28:25 2022 GMT
        Subject: C=CN, ST=CN, O=CITICS, OU=CATS, CN=CLI
        Subject Public Key Info:
            Public Key Algorithm: rsaEncryption
            RSA Public Key: (1024 bit)
                Modulus (1024 bit):
                    00:f2:b0:f7:90:8a:d7:1b:c0:11:ba:88:73:d5:ec:
                    23:73:a7:b7:fa:23:58:dc:df:c2:6e:81:57:59:36:
                    a9:00:7f:b1:34:1e:e8:46:89:f7:c5:0e:7a:84:be:
                    3c:84:18:e5:76:19:38:1d:70:e1:fa:44:4a:4f:e9:
                    68:51:23:d1:0f:be:56:46:ae:30:53:34:1e:8e:3d:
                    15:ce:b8:d9:25:a1:eb:5e:74:71:3b:12:40:e4:66:
                    be:a4:ac:92:86:a8:fc:a2:b0:56:5b:09:05:1d:d6:
                    fb:a6:6b:f5:ca:7f:71:b9:fb:79:7d:bf:33:8f:34:
                    32:00:ff:a9:91:aa:a2:27:75
                Exponent: 65537 (0x10001)
        X509v3 extensions:
            X509v3 Basic Constraints: 
                CA:FALSE
            Netscape Comment: 
                OpenSSL Generated Certificate
            X509v3 Subject Key Identifier: 
                9C:3F:E3:51:B0:12:9F:1D:E9:AC:CF:8A:A3:00:29:94:8C:B3:90:B0
            X509v3 Authority Key Identifier: 
                keyid:2F:49:BC:64:54:22:6C:93:64:A9:B5:21:8B:3C:FE:FA:35:AE:DB:AC

    Signature Algorithm: sha1WithRSAEncryption
        af:29:32:b4:34:ae:fe:3f:22:c8:b4:61:15:98:13:15:f2:b0:
        21:d0:66:df:34:1d:ce:7e:0d:7d:48:d7:0e:83:0c:af:c9:d1:
        17:97:f7:cf:82:87:30:c0:8b:9d:b7:b9:6c:47:79:6c:74:f2:
        fd:d7:6f:b5:c5:be:1b:2b:3d:85:13:14:a9:a4:5a:13:40:7c:
        d7:74:26:39:9c:99:9c:f9:e7:cd:3c:87:34:7f:17:e9:95:19:
        c4:7e:5f:4a:59:c3:1f:61:81:6d:7b:e3:79:3d:05:11:db:cc:
        5a:86:bc:59:67:5f:40:cc:00:ec:29:3e:d9:56:2d:7a:98:ff:
        bc:e6
-----BEGIN CERTIFICATE-----
MIICiDCCAfGgAwIBAgIJAJtKpf/zVRqyMA0GCSqGSIb3DQEBBQUAMEcxCzAJBgNV
BAYTAkNOMQswCQYDVQQIEwJDTjEPMA0GA1UEChMGQ0lUSUNTMQ0wCwYDVQQLEwRD
QVRTMQswCQYDVQQDEwJMWjAeFw0xMjA5MDYwMzI4MjVaFw0yMjA5MDQwMzI4MjVa
MEgxCzAJBgNVBAYTAkNOMQswCQYDVQQIEwJDTjEPMA0GA1UEChMGQ0lUSUNTMQ0w
CwYDVQQLEwRDQVRTMQwwCgYDVQQDEwNDTEkwgZ8wDQYJKoZIhvcNAQEBBQADgY0A
MIGJAoGBAPKw95CK1xvAEbqIc9XsI3Ont/ojWNzfwm6BV1k2qQB/sTQe6EaJ98UO
eoS+PIQY5XYZOB1w4fpESk/paFEj0Q++VkauMFM0Ho49Fc642SWh6150cTsSQORm
vqSskoao/KKwVlsJBR3W+6Zr9cp/cbn7eX2/M480MgD/qZGqoid1AgMBAAGjezB5
MAkGA1UdEwQCMAAwLAYJYIZIAYb4QgENBB8WHU9wZW5TU0wgR2VuZXJhdGVkIENl
cnRpZmljYXRlMB0GA1UdDgQWBBScP+NRsBKfHemsz4qjACmUjLOQsDAfBgNVHSME
GDAWgBQvSbxkVCJsk2SptSGLPP76Na7brDANBgkqhkiG9w0BAQUFAAOBgQCvKTK0
NK7+PyLItGEVmBMV8rAh0GbfNB3Ofg19SNcOgwyvydEXl/fPgocwwIudt7lsR3ls
dPL912+1xb4bKz2FExSppFoTQHzXdCY5nJmc+efNPIc0fxfplRnEfl9KWcMfYYFt
e+N5PQUR28xahrxZZ19AzADsKT7ZVi16mP+85g==
-----END CERTIFICATE-----
